target datalayout = "e-m:e-p270:32:32-p271:32:32-p272:64:64-i64:64-i128:128-f80:128-n8:16:32:64-S128"
target triple = "x86_64-pc-linux-gnu"

@proto_ppp = internal global i32 0, align 4
@ett_ppp = internal global i32 0, align 4
@dissect_ppp_usb.buf1 = internal constant [3 x i8] c"~\FF\03", align 1
@dissect_ppp_usb.buf2 = internal constant [4 x i8] c"~\FF}#", align 1

; Function Attrs: null_pointer_is_valid sspstrong uwtable
define internal i32 @dissect_ppp(ptr noundef %0, ptr noundef %1, ptr noundef %2, ptr noundef %3) #1 {
  %5 = alloca ptr, align 8
  %6 = alloca ptr, align 8
  %7 = alloca ptr, align 8
  %8 = alloca ptr, align 8
  %9 = alloca ptr, align 8
  %10 = alloca ptr, align 8
  store ptr %0, ptr %5, align 8
  store ptr %1, ptr %6, align 8
  store ptr %2, ptr %7, align 8
  store ptr %3, ptr %8, align 8
  call void @llvm.lifetime.start.p0(i64 8, ptr %9) #6
  call void @llvm.lifetime.start.p0(i64 8, ptr %10) #6
  %11 = load ptr, ptr %7, align 8
  %12 = load i32, ptr @proto_ppp, align 4
  %13 = load ptr, ptr %5, align 8
  %14 = call ptr @proto_tree_add_item(ptr noundef %11, i32 noundef %12, ptr noundef %13, i32 noundef 0, i32 noundef -1, i32 noundef 0)
  store ptr %14, ptr %9, align 8
  %15 = load ptr, ptr %9, align 8
  %16 = load i32, ptr @ett_ppp, align 4
  %17 = call ptr @proto_item_add_subtree(ptr noundef %15, i32 noundef %16)
  store ptr %17, ptr %10, align 8
  %18 = load ptr, ptr %5, align 8
  %19 = load ptr, ptr %6, align 8
  %20 = load ptr, ptr %7, align 8
  %21 = load ptr, ptr %10, align 8
  %22 = load ptr, ptr %9, align 8
  call void @dissect_ppp_common(ptr noundef %18, ptr noundef %19, ptr noundef %20, ptr noundef %21, ptr noundef %22, i32 noundef 0)
  %23 = load ptr, ptr %5, align 8
  %24 = call i32 @tvb_captured_length(ptr noundef %23)
  call void @llvm.lifetime.end.p0(i64 8, ptr %10) #6
  call void @llvm.lifetime.end.p0(i64 8, ptr %9) #6
  ret i32 %24
}

; Function Attrs: null_pointer_is_valid sspstrong uwtable
define internal zeroext i1 @dissect_ppp_usb(ptr noundef %0, ptr noundef %1, ptr noundef %2, ptr noundef %3) #1 {
  %5 = alloca i1, align 1
  %6 = alloca ptr, align 8
  %7 = alloca ptr, align 8
  %8 = alloca ptr, align 8
  %9 = alloca ptr, align 8
  %10 = alloca ptr, align 8
  %11 = alloca i32, align 4
  store ptr %0, ptr %6, align 8
  store ptr %1, ptr %7, align 8
  store ptr %2, ptr %8, align 8
  store ptr %3, ptr %9, align 8
  call void @llvm.lifetime.start.p0(i64 8, ptr %10) #6
  %12 = load ptr, ptr %6, align 8
  %13 = call i32 @tvb_memeql(ptr noundef %12, i32 noundef 0, ptr noundef @dissect_ppp_usb.buf2, i64 noundef 4)
  %14 = icmp eq i32 %13, 0
  br i1 %14, label %19, label %15

15:                                               ; preds = %4
  %16 = load ptr, ptr %6, align 8
  %17 = call i32 @tvb_memeql(ptr noundef %16, i32 noundef 0, ptr noundef @dissect_ppp_usb.buf1, i64 noundef 3)
  %18 = icmp eq i32 %17, 0
  br i1 %18, label %19, label %25

19:                                               ; preds = %15, %4
  %20 = load ptr, ptr %6, align 8
  %21 = load ptr, ptr %7, align 8
  %22 = load ptr, ptr %8, align 8
  %23 = load ptr, ptr %9, align 8
  %24 = call i32 @dissect_ppp_raw_hdlc(ptr noundef %20, ptr noundef %21, ptr noundef %22, ptr noundef %23)
  br label %64

25:                                               ; preds = %15
  %26 = load ptr, ptr %6, align 8
  %27 = call i32 @tvb_memeql(ptr noundef %26, i32 noundef 0, ptr noundef getelementptr ([3 x i8], ptr @dissect_ppp_usb.buf1, i64 0, i64 1), i64 noundef 2)
  %28 = icmp eq i32 %27, 0
  br i1 %28, label %33, label %29

29:                                               ; preds = %25
  %30 = load ptr, ptr %6, align 8
  %31 = call i32 @tvb_memeql(ptr noundef %30, i32 noundef 0, ptr noundef getelementptr ([4 x i8], ptr @dissect_ppp_usb.buf2, i64 0, i64 1), i64 noundef 3)
  %32 = icmp eq i32 %31, 0
  br i1 %32, label %33, label %50

33:                                               ; preds = %29, %25
  %34 = load ptr, ptr %6, align 8
  %35 = call zeroext i8 @tvb_get_uint8(ptr noundef %34, i32 noundef 1)
  %36 = zext i8 %35 to i32
  %37 = icmp eq i32 %36, 3
  br i1 %37, label %38, label %41

38:                                               ; preds = %33
  %39 = load ptr, ptr %6, align 8
  %40 = call ptr @tvb_new_subset_remaining(ptr noundef %39, i32 noundef 2)
  store ptr %40, ptr %10, align 8
  br label %44

41:                                               ; preds = %33
  %42 = load ptr, ptr %6, align 8
  %43 = call ptr @tvb_new_subset_remaining(ptr noundef %42, i32 noundef 3)
  store ptr %43, ptr %10, align 8
  br label %44

44:                                               ; preds = %41, %38
  %45 = load ptr, ptr %10, align 8
  %46 = load ptr, ptr %7, align 8
  %47 = load ptr, ptr %8, align 8
  %48 = load ptr, ptr %9, align 8
  %49 = call i32 @dissect_ppp(ptr noundef %45, ptr noundef %46, ptr noundef %47, ptr noundef %48)
  br label %63

50:                                               ; preds = %29
  %51 = load ptr, ptr %6, align 8
  %52 = call zeroext i8 @tvb_get_uint8(ptr noundef %51, i32 noundef 0)
  %53 = zext i8 %52 to i32
  %54 = icmp eq i32 %53, 126
  br i1 %54, label %55, label %61

55:                                               ; preds = %50
  %56 = load ptr, ptr %6, align 8
  %57 = call ptr @tvb_new_subset_remaining(ptr noundef %56, i32 noundef 1)
  store ptr %57, ptr %10, align 8
  %58 = load ptr, ptr %10, align 8
  %59 = load ptr, ptr %7, align 8
  %60 = load ptr, ptr %8, align 8
  call void @dissect_ppp_hdlc_common(ptr noundef %58, ptr noundef %59, ptr noundef %60)
  br label %62

61:                                               ; preds = %50
  store i1 false, ptr %5, align 1
  store i32 1, ptr %11, align 4
  br label %65

62:                                               ; preds = %55
  br label %63

63:                                               ; preds = %62, %44
  br label %64

64:                                               ; preds = %63, %19
  store i1 true, ptr %5, align 1
  store i32 1, ptr %11, align 4
  br label %65

65:                                               ; preds = %64, %61
  call void @llvm.lifetime.end.p0(i64 8, ptr %10) #6
  %66 = load i1, ptr %5, align 1
  ret i1 %66
}