; Function Attrs: null_pointer_is_valid sspstrong uwtable
define internal noundef zeroext i1 @dissect_ppp_usb(ptr noundef %0, ptr noundef %1, ptr noundef %2, ptr readnone captures(none) %3) #1 {
  %5 = tail call i32 @tvb_memeql(ptr noundef %0, i32 noundef 0, ptr noundef nonnull @dissect_ppp_usb.buf2, i64 noundef 4)
  %6 = icmp eq i32 %5, 0
  br i1 %6, label %10, label %7

7:                                                ; preds = %4
  %8 = tail call i32 @tvb_memeql(ptr noundef %0, i32 noundef 0, ptr noundef nonnull @dissect_ppp_usb.buf1, i64 noundef 3)
  %9 = icmp eq i32 %8, 0
  br i1 %9, label %10, label %12

10:                                               ; preds = %7, %4
  %11 = tail call i32 @dissect_ppp_raw_hdlc(ptr noundef %0, ptr noundef %1, ptr noundef %2, ptr poison)
  br label %32

12:                                               ; preds = %7
  %13 = tail call i32 @tvb_memeql(ptr noundef %0, i32 noundef 0, ptr noundef nonnull getelementptr inbounds nuw (i8, ptr @dissect_ppp_usb.buf1, i64 1), i64 noundef 2)
  %14 = icmp eq i32 %13, 0
  br i1 %14, label %18, label %15

15:                                               ; preds = %12
  %16 = tail call i32 @tvb_memeql(ptr noundef %0, i32 noundef 0, ptr noundef nonnull getelementptr inbounds nuw (i8, ptr @dissect_ppp_usb.buf2, i64 1), i64 noundef 3)
  %17 = icmp eq i32 %16, 0
  br i1 %17, label %18, label %27

18:                                               ; preds = %15, %12
  %19 = tail call zeroext i8 @tvb_get_uint8(ptr noundef %0, i32 noundef 1)
  %20 = icmp eq i8 %19, 3
  %. = select i1 %20, i32 2, i32 3
  %21 = tail call ptr @tvb_new_subset_remaining(ptr noundef %0, i32 noundef %.)
  %22 = load i32, ptr @proto_ppp, align 4
  %23 = tail call ptr @proto_tree_add_item(ptr noundef %2, i32 noundef %22, ptr noundef %21, i32 noundef 0, i32 noundef -1, i32 noundef 0)
  %24 = load i32, ptr @ett_ppp, align 4
  %25 = tail call ptr @proto_item_add_subtree(ptr noundef %23, i32 noundef %24)
  tail call fastcc void @dissect_ppp_common(ptr noundef %21, ptr noundef %1, ptr noundef %2, ptr noundef %25, ptr noundef %23, i32 noundef 0)
  %26 = tail call i32 @tvb_captured_length(ptr noundef %21)
  br label %32

27:                                               ; preds = %15
  %28 = tail call zeroext i8 @tvb_get_uint8(ptr noundef %0, i32 noundef 0)
  %29 = icmp eq i8 %28, 126
  br i1 %29, label %30, label %32

30:                                               ; preds = %27
  %31 = tail call ptr @tvb_new_subset_remaining(ptr noundef %0, i32 noundef 1)
  tail call fastcc void @dissect_ppp_hdlc_common(ptr noundef %31, ptr noundef %1, ptr noundef %2)
  br label %32

32:                                               ; preds = %10, %30, %18, %27
  %.021 = phi i1 [ false, %27 ], [ true, %18 ], [ true, %30 ], [ true, %10 ]
  ret i1 %.021
}